-----BEGIN CERTIFICATE-----
MIIJmDCCB4CgAwIBAgIBCjANBgkqhkiG9w0BAQwFADCCAR4xPjA8BgNVBAMTNUF1
dG9yaWRhZCBkZSBDZXJ0aWZpY2FjaW9uIFJhaXogZGVsIEVzdGFkbyBWZW5lem9s
YW5vMQswCQYDVQQGEwJWRTEQMA4GA1UEBxMHQ2FyYWNhczEZMBcGA1UECBMQRGlz
dHJpdG8gQ2FwaXRhbDE2MDQGA1UEChMtU2lzdGVtYSBOYWNpb25hbCBkZSBDZXJ0
aWZpY2FjaW9uIEVsZWN0cm9uaWNhMUMwQQYDVQQLEzpTdXBlcmludGVuZGVuY2lh
IGRlIFNlcnZpY2lvcyBkZSBDZXJ0aWZpY2FjaW9uIEVsZWN0cm9uaWNhMSUwIwYJ
KoZIhvcNAQkBFhZhY3JhaXpAc3VzY2VydGUuZ29iLnZlMB4XDTEwMTIyODE2NDEz
NloXDTMwMTIyMzIzNTk1OVowggEeMT4wPAYDVQQDEzVBdXRvcmlkYWQgZGUgQ2Vy
dGlmaWNhY2lvbiBSYWl6IGRlbCBFc3RhZG8gVmVuZXpvbGFubzELMAkGA1UEBhMC
VkUxEDAOBgNVBAcTB0NhcmFjYXMxGTAXBgNVBAgTEERpc3RyaXRvIENhcGl0YWwx
NjA0BgNVBAoTLVNpc3RlbWEgTmFjaW9uYWwgZGUgQ2VydGlmaWNhY2lvbiBFbGVj
dHJvbmljYTFDMEEGA1UECxM6U3VwZXJpbnRlbmRlbmNpYSBkZSBTZXJ2aWNpb3Mg
ZGUgQ2VydGlmaWNhY2lvbiBFbGVjdHJvbmljYTElMCMGCSqGSIb3DQEJARYWYWNy
YWl6QHN1c2NlcnRlLmdvYi52ZTCCAiIwDQYJKoZIhvcNAQEBBQADggIPADCCAgoC
ggIBAME77xNS8ZlW47RsBeEaaRZhJoZ4rw785UAFCuPZOAVMqNS1wMYqzy95q6Gk
UO81ER/ugiQX/KMcq/4HBn83fwdYWxPZfwBfK7BP2p/JsFgzYeFP0BXOLmvoJIzl
Jb6FW+1MPwGBjuaZGFImWZsSmGUclb51mRYMZETh9/J5CLThR1exStxHQptwSzra
zNFpkQY/zmj7+YZNA9yDoroVFv6sybYOZ7OxNDo7zkSLo45I7gMwtxqWZ8VkJZkC
8+p0dX6mkhUT0QAV64Zc9HsZiH/oLhEkXjhrgZ28cF73MXIqLx1fyM4kPH1yOJi/
R72nMwL7D+Sd6mZgI035TxuHXc2/uOwXfKrrTjaJDz8Jp6DdessOkxIgkKXRjP+F
K3ze3n4NUIRGhGRtyvEjK95/2g02t6PeYiYVGur6ruS49n0RAaSS0/LJb6XzaAAe
0mmO2evnEqxIKwy2mZRNPfAVW1l3wCnWiUwryBU6OsbFcFFrQm+00wOicXvOTHBM
aiCVAVZTb9RSLyi+LJ1llzJZO3pq3IRiiBj38Nooo+2ZNbMEciSgmig7YXaUcmud
SVQvLSL+Yw+SqawyezwZuASbp7d/0rutQ59d81zlbMt3J7yB567rT2IqIydQ8qBW
k+fmXzghX+/FidYsh/aK+zZ7Wy68kKHuzEw1Vqkat5DGs+VzAgMBAAGjggLbMIIC
1zASBgNVHRMBAf8ECDAGAQH/AgECMDcGA1UdEgQwMC6CD3N1c2NlcnRlLmdvYi52
ZaAbBgVghl4CAqASDBBSSUYtRy0yMDAwNDAzNi0wMB0GA1UdDgQWBBStuyIdxuDS
Aaj9dlBSk+2YwU2u0zCCAVAGA1UdIwSCAUcwggFDgBStuyIdxuDSAaj9dlBSk+2Y
wU2u06GCASakggEiMIIBHjE+MDwGA1UEAxM1QXV0b3JpZGFkIGRlIENlcnRpZmlj
YWNpb24gUmFpeiBkZWwgRXN0YWRvIFZlbmV6b2xhbm8xCzAJBgNVBAYTAlZFMRAw
DgYDVQQHEwdDYXJhY2FzMRkwFwYDVQQIExBEaXN0cml0byBDYXBpdGFsMTYwNAYD
VQQKEy1TaXN0ZW1hIE5hY2lvbmFsIGRlIENlcnRpZmljYWNpb24gRWxlY3Ryb25p
Y2ExQzBBBgNVBAsTOlN1cGVyaW50ZW5kZW5jaWEgZGUgU2VydmljaW9zIGRlIENl
cnRpZmljYWNpb24gRWxlY3Ryb25pY2ExJTAjBgkqhkiG9w0BCQEWFmFjcmFpekBz
dXNjZXJ0ZS5nb2IudmWCAQowCwYDVR0PBAQDAgEGMDcGA1UdEQQwMC6CD3N1c2Nl
cnRlLmdvYi52ZaAbBgVghl4CAqASDBBSSUYtRy0yMDAwNDAzNi0wMFQGA1UdHwRN
MEswJKAioCCGHmh0dHA6Ly93d3cuc3VzY2VydGUuZ29iLnZlL2xjcjAjoCGgH4Yd
bGRhcDovL2FjcmFpei5zdXNjZXJ0ZS5nb2IudmUwNwYIKwYBBQUHAQEEKzApMCcG
CCsGAQUFBzABhhtodHRwOi8vb2NzcC5zdXNjZXJ0ZS5nb2IudmUwQAYDVR0gBDkw
NzA1BgVghl4BAjAsMCoGCCsGAQUFBwIBFh5odHRwOi8vd3d3LnN1c2NlcnRlLmdv
Yi52ZS9kcGMwDQYJKoZIhvcNAQEMBQADggIBABxZEOVepFHBR7tlsgtV4i+poye8
4TyKx2wDVqOpKaKbipXYH/e2EmAWvnr0/QOBT/2BgapPgXAeLu/AkhJ7uw+FiMT5
HUG1uiQqwygmE8r5APvXw1z5aOkbwRgiyaJsZMP4OcNOId3Wwt7ltizJXDjw3l5q
5Cf0uDPEy2GSM1OozPydzVP7KAvv7X+wj3QitjVXgKiuBa4pCjuypP0949TBkPY/
zrzkRP7RwX4oL/0AJDIgiMRvGHuRDkiQvJZiYIFtFAAaUbq1XWmNYUccLKxORSCp
SEWjh0mjeJDdNkJ/2HZv/W2DAcb5f5ggf5YuImCroifAsDUk0Mm/M5kiUw5uH2JM
JvwkM8rBA8ypF2FjMyTMaEDvr6LihcOIMNNFG+5W6lYKDwpHmzBZ2EnRMJAMJyom
CChcMh8n160LSeUXUWPP5g07YFEavUMJUOaRtWPmZJeqC5cTAQaGXKUflb5Qjguy
0mR/26tM5kPG5IWNav6N/ruUVR6RUycI07pnPTqhycHFFLr5Q1zFjiGMgqL9KjIl
1RaMFVbAmPwuso4ZpBZxw0vdcf5x7CId8MGMmIGHtL8CuMQwMUfCwLCvezNjCt2s
RZvBzICH9NmYXpyG/poE/2ZK/HthVL5XYwUHxqcBdVnkbjk7APSqnfOfiL/P0SUr
339z7RaGqZBlD3Ap
-----END CERTIFICATE-----
Certificate:
    Data:
        Version: 3 (0x2)
        Serial Number: 10 (0xa)
        Signature Algorithm: sha384WithRSAEncryption
        Issuer: CN=Autoridad de Certificacion Raiz del Estado Venezolano, C=VE, L=Caracas, ST=Distrito Capital, O=Sistema Nacional de Certificacion Electronica, OU=Superintendencia de Servicios de Certificacion Electronica/emailAddress=acraiz@suscerte.gob.ve
        Validity
            Not Before: Dec 28 16:41:36 2010 GMT
            Not After : Dec 23 23:59:59 2030 GMT
        Subject: CN=Autoridad de Certificacion Raiz del Estado Venezolano, C=VE, L=Caracas, ST=Distrito Capital, O=Sistema Nacional de Certificacion Electronica, OU=Superintendencia de Servicios de Certificacion Electronica/emailAddress=acraiz@suscerte.gob.ve
        Subject Public Key Info:
            Public Key Algorithm: rsaEncryption
            RSA Public Key: (4096 bit)
                Modulus (4096 bit):
                    00:c1:3b:ef:13:52:f1:99:56:e3:b4:6c:05:e1:1a:
                    69:16:61:26:86:78:af:0e:fc:e5:40:05:0a:e3:d9:
                    38:05:4c:a8:d4:b5:c0:c6:2a:cf:2f:79:ab:a1:a4:
                    50:ef:35:11:1f:ee:82:24:17:fc:a3:1c:ab:fe:07:
                    06:7f:37:7f:07:58:5b:13:d9:7f:00:5f:2b:b0:4f:
                    da:9f:c9:b0:58:33:61:e1:4f:d0:15:ce:2e:6b:e8:
                    24:8c:e5:25:be:85:5b:ed:4c:3f:01:81:8e:e6:99:
                    18:52:26:59:9b:12:98:65:1c:95:be:75:99:16:0c:
                    64:44:e1:f7:f2:79:08:b4:e1:47:57:b1:4a:dc:47:
                    42:9b:70:4b:3a:da:cc:d1:69:91:06:3f:ce:68:fb:
                    f9:86:4d:03:dc:83:a2:ba:15:16:fe:ac:c9:b6:0e:
                    67:b3:b1:34:3a:3b:ce:44:8b:a3:8e:48:ee:03:30:
                    b7:1a:96:67:c5:64:25:99:02:f3:ea:74:75:7e:a6:
                    92:15:13:d1:00:15:eb:86:5c:f4:7b:19:88:7f:e8:
                    2e:11:24:5e:38:6b:81:9d:bc:70:5e:f7:31:72:2a:
                    2f:1d:5f:c8:ce:24:3c:7d:72:38:98:bf:47:bd:a7:
                    33:02:fb:0f:e4:9d:ea:66:60:23:4d:f9:4f:1b:87:
                    5d:cd:bf:b8:ec:17:7c:aa:eb:4e:36:89:0f:3f:09:
                    a7:a0:dd:7a:cb:0e:93:12:20:90:a5:d1:8c:ff:85:
                    2b:7c:de:de:7e:0d:50:84:46:84:64:6d:ca:f1:23:
                    2b:de:7f:da:0d:36:b7:a3:de:62:26:15:1a:ea:fa:
                    ae:e4:b8:f6:7d:11:01:a4:92:d3:f2:c9:6f:a5:f3:
                    68:00:1e:d2:69:8e:d9:eb:e7:12:ac:48:2b:0c:b6:
                    99:94:4d:3d:f0:15:5b:59:77:c0:29:d6:89:4c:2b:
                    c8:15:3a:3a:c6:c5:70:51:6b:42:6f:b4:d3:03:a2:
                    71:7b:ce:4c:70:4c:6a:20:95:01:56:53:6f:d4:52:
                    2f:28:be:2c:9d:65:97:32:59:3b:7a:6a:dc:84:62:
                    88:18:f7:f0:da:28:a3:ed:99:35:b3:04:72:24:a0:
                    9a:28:3b:61:76:94:72:6b:9d:49:54:2f:2d:22:fe:
                    63:0f:92:a9:ac:32:7b:3c:19:b8:04:9b:a7:b7:7f:
                    d2:bb:ad:43:9f:5d:f3:5c:e5:6c:cb:77:27:bc:81:
                    e7:ae:eb:4f:62:2a:23:27:50:f2:a0:56:93:e7:e6:
                    5f:38:21:5f:ef:c5:89:d6:2c:87:f6:8a:fb:36:7b:
                    5b:2e:bc:90:a1:ee:cc:4c:35:56:a9:1a:b7:90:c6:
                    b3:e5:73
                Exponent: 65537 (0x10001)
        X509v3 extensions:
            X509v3 Basic Constraints: critical
                CA:TRUE, pathlen:2
            X509v3 Issuer Alternative Name:
                DNS:suscerte.gob.ve, othername:<unsupported>
            X509v3 Subject Key Identifier:
                AD:BB:22:1D:C6:E0:D2:01:A8:FD:76:50:52:93:ED:98:C1:4D:AE:D3
            X509v3 Authority Key Identifier:
                keyid:AD:BB:22:1D:C6:E0:D2:01:A8:FD:76:50:52:93:ED:98:C1:4D:AE:D3
                DirName:/CN=Autoridad de Certificacion Raiz del Estado Venezolano/C=VE/L=Caracas/ST=Distrito Capital/O=Sistema Nacional de Certificacion Electronica/OU=Superintendencia de Servicios de Certificacion Electronica/emailAddress=acraiz@suscerte.gob.ve
                serial:0A
            X509v3 Key Usage:
                Certificate Sign, CRL Sign
            X509v3 Subject Alternative Name:
                DNS:suscerte.gob.ve, othername:<unsupported>
            X509v3 CRL Distribution Points:
                URI:http://www.suscerte.gob.ve/lcr
                URI:ldap://acraiz.suscerte.gob.ve
            Authority Information Access:
                OCSP - URI:http://ocsp.suscerte.gob.ve
            X509v3 Certificate Policies:
                Policy: 2.16.862.1.2
                  CPS: http://www.suscerte.gob.ve/dpc
    Signature Algorithm: sha384WithRSAEncryption
        1c:59:10:e5:5e:a4:51:c1:47:bb:65:b2:0b:55:e2:2f:a9:a3:
        27:bc:e1:3c:8a:c7:6c:03:56:a3:a9:29:a2:9b:8a:95:d8:1f:
        f7:b6:12:60:16:be:7a:f4:fd:03:81:4f:fd:81:81:aa:4f:81:
        70:1e:2e:ef:c0:92:12:7b:bb:0f:85:88:c4:f9:1d:41:b5:ba:
        24:2a:c3:28:26:13:ca:f9:00:fb:d7:c3:5c:f9:68:e9:1b:c1:
        18:22:c9:a2:6c:64:c3:f8:39:c3:4e:21:dd:d6:c2:de:e5:b6:
        2c:c9:5c:38:f0:de:5e:6a:e4:27:f4:b8:33:c4:cb:61:92:33:
        53:a8:cc:fc:9d:cd:53:fb:28:0b:ef:ed:7f:b0:8f:74:22:b6:
        35:57:80:a8:ae:05:ae:29:0a:3b:b2:a4:fd:3d:e3:d4:c1:90:
        f6:3f:ce:bc:e4:44:fe:d1:c1:7e:28:2f:fd:00:24:32:20:88:
        c4:6f:18:7b:91:0e:48:90:bc:96:62:60:81:6d:14:00:1a:51:
        ba:b5:5d:69:8d:61:47:1c:2c:ac:4e:45:20:a9:48:45:a3:87:
        49:a3:78:90:dd:36:42:7f:d8:76:6f:fd:6d:83:01:c6:f9:7f:
        98:20:7f:96:2e:22:60:ab:a2:27:c0:b0:35:24:d0:c9:bf:33:
        99:22:53:0e:6e:1f:62:4c:26:fc:24:33:ca:c1:03:cc:a9:17:
        61:63:33:24:cc:68:40:ef:af:a2:e2:85:c3:88:30:d3:45:1b:
        ee:56:ea:56:0a:0f:0a:47:9b:30:59:d8:49:d1:30:90:0c:27:
        2a:26:08:28:5c:32:1f:27:d7:ad:0b:49:e5:17:51:63:cf:e6:
        0d:3b:60:51:1a:bd:43:09:50:e6:91:b5:63:e6:64:97:aa:0b:
        97:13:01:06:86:5c:a5:1f:95:be:50:8e:0b:b2:d2:64:7f:db:
        ab:4c:e6:43:c6:e4:85:8d:6a:fe:8d:fe:bb:94:55:1e:91:53:
        27:08:d3:ba:67:3d:3a:a1:c9:c1:c5:14:ba:f9:43:5c:c5:8e:
        21:8c:82:a2:fd:2a:32:25:d5:16:8c:15:56:c0:98:fc:2e:b2:
        8e:19:a4:16:71:c3:4b:dd:71:fe:71:ec:22:1d:f0:c1:8c:98:
        81:87:b4:bf:02:b8:c4:30:31:47:c2:c0:b0:af:7b:33:63:0a:
        dd:ac:45:9b:c1:cc:80:87:f4:d9:98:5e:9c:86:fe:9a:04:ff:
        66:4a:fc:7b:61:54:be:57:63:05:07:c6:a7:01:75:59:e4:6e:
        39:3b:00:f4:aa:9d:f3:9f:88:bf:cf:d1:25:2b:df:7f:73:ed:
        16:86:a9:90:65:0f:70:29
